target datalayout = "e-m:e-p270:32:32-p271:32:32-p272:64:64-i64:64-i128:128-f80:128-n8:16:32:64-S128"
target triple = "x86_64-pc-linux-gnu"

%class.decode_env = type <{ ptr, ptr, ptr, ptr, ptr, [512 x i8], i8, [7 x i8], ptr, i32, i32, i32, i8, i8, i8, i8 }>

@_ZN12Disassembler22_tried_to_load_libraryE = hidden global i8 0, align 1
@_ZN12Disassembler15_library_usableE = hidden global i8 0, align 1
@_ZN12Disassembler28_decode_instructions_virtualE = hidden global ptr null, align 8
@.str.55 = private unnamed_addr constant [45 x i8] c"Decode range start:0x%016lx: ... (unaligned)\00", align 1
@stdout = external global ptr, align 8
@.str.65 = private unnamed_addr constant [81 x i8] c"--------------------------------------------------------------------------------\00", align 1
@.str.69 = private unnamed_addr constant [47 x i8] c"Memory range [0x%016lx..0x%016lx] not readable\00", align 1
@_ZN10decode_envC1EPhS0_P12outputStream = hidden unnamed_addr alias void (ptr, ptr, ptr, ptr), ptr @_ZN10decode_envC2EPhS0_P12outputStream

; Function Attrs: mustprogress nounwind uwtable
define linkonce_odr hidden noundef ptr @_ZN10decode_env7optionsEv(ptr noundef nonnull align 8 dereferenceable(583) %0) #1 comdat align 2 {
  %2 = alloca ptr, align 8
  store ptr %0, ptr %2, align 8
  %3 = load ptr, ptr %2, align 8
  %4 = getelementptr inbounds %class.decode_env, ptr %3, i32 0, i32 5
  %5 = getelementptr inbounds [512 x i8], ptr %4, i64 0, i64 0
  ret ptr %5
}

; Function Attrs: mustprogress nounwind uwtable
define linkonce_odr hidden noundef i32 @_ZN12Disassembler24pd_instruction_alignmentEv() #1 comdat align 2 {
  ret i32 1
}

; Function Attrs: mustprogress nounwind uwtable
define linkonce_odr hidden void @_ZN10decode_env7set_endEPh(ptr noundef nonnull align 8 dereferenceable(583) %0, ptr noundef %1) #1 comdat align 2 {
  %3 = alloca ptr, align 8
  %4 = alloca ptr, align 8
  store ptr %0, ptr %3, align 8
  store ptr %1, ptr %4, align 8
  %5 = load ptr, ptr %3, align 8
  %6 = load ptr, ptr %4, align 8
  %7 = getelementptr inbounds %class.decode_env, ptr %5, i32 0, i32 4
  store ptr %6, ptr %7, align 8
  ret void
}

; Function Attrs: mustprogress nounwind uwtable
define linkonce_odr hidden void @_ZN10decode_env9set_startEPh(ptr noundef nonnull align 8 dereferenceable(583) %0, ptr noundef %1) #1 comdat align 2 {
  %3 = alloca ptr, align 8
  %4 = alloca ptr, align 8
  store ptr %0, ptr %3, align 8
  store ptr %1, ptr %4, align 8
  %5 = load ptr, ptr %3, align 8
  %6 = load ptr, ptr %4, align 8
  %7 = getelementptr inbounds %class.decode_env, ptr %5, i32 0, i32 3
  store ptr %6, ptr %7, align 8
  ret void
}

; Function Attrs: mustprogress nounwind uwtable
define hidden noundef ptr @_ZN10decode_env19decode_instructionsEPhS0_S0_(ptr noundef nonnull align 8 dereferenceable(583) %0, ptr noundef %1, ptr noundef %2, ptr noundef %3) #1 align 2 {
  %5 = alloca ptr, align 8
  %6 = alloca ptr, align 8
  %7 = alloca ptr, align 8
  %8 = alloca ptr, align 8
  %9 = alloca ptr, align 8
  %10 = alloca ptr, align 8
  %11 = alloca ptr, align 8
  store ptr %0, ptr %6, align 8
  store ptr %1, ptr %7, align 8
  store ptr %2, ptr %8, align 8
  store ptr %3, ptr %9, align 8
  %12 = load ptr, ptr %6, align 8
  %13 = load ptr, ptr %7, align 8
  %14 = icmp ne ptr %13, null
  br i1 %14, label %15, label %17

15:                                               ; preds = %4
  %16 = load ptr, ptr %7, align 8
  call void @_ZN10decode_env9set_startEPh(ptr noundef nonnull align 8 dereferenceable(583) %12, ptr noundef %16)
  br label %17

17:                                               ; preds = %15, %4
  %18 = load ptr, ptr %8, align 8
  %19 = icmp ne ptr %18, null
  br i1 %19, label %20, label %22

20:                                               ; preds = %17
  %21 = load ptr, ptr %8, align 8
  call void @_ZN10decode_env7set_endEPh(ptr noundef nonnull align 8 dereferenceable(583) %12, ptr noundef %21)
  br label %22

22:                                               ; preds = %20, %17
  %23 = load ptr, ptr %9, align 8
  %24 = icmp eq ptr %23, null
  br i1 %24, label %25, label %27

25:                                               ; preds = %22
  %26 = load ptr, ptr %7, align 8
  store ptr %26, ptr %9, align 8
  br label %27

27:                                               ; preds = %25, %22
  %28 = load ptr, ptr %7, align 8
  %29 = ptrtoint ptr %28 to i64
  %30 = call noundef i32 @_ZN12Disassembler24pd_instruction_alignmentEv()
  %31 = sext i32 %30 to i64
  %32 = sub i64 %31, 1
  %33 = and i64 %29, %32
  %34 = icmp ne i64 %33, 0
  br i1 %34, label %35, label %47

35:                                               ; preds = %27
  %36 = call noundef ptr @_ZN10decode_env6outputEv(ptr noundef nonnull align 8 dereferenceable(583) %12)
  %37 = load ptr, ptr %7, align 8
  %38 = call noundef i64 @_Z3p2iPVKv(ptr noundef %37)
  call void (ptr, ptr, ...) @_ZN12outputStream8print_crEPKcz(ptr noundef nonnull align 8 dereferenceable(56) %36, ptr noundef @.str.55, i64 noundef %38)
  %39 = load ptr, ptr %7, align 8
  %40 = ptrtoint ptr %39 to i64
  %41 = call noundef i32 @_ZN12Disassembler24pd_instruction_alignmentEv()
  %42 = sext i32 %41 to i64
  %43 = sub i64 %42, 1
  %44 = xor i64 %43, -1
  %45 = and i64 %40, %44
  %46 = inttoptr i64 %45 to ptr
  store ptr %46, ptr %7, align 8
  br label %47

47:                                               ; preds = %35, %27
  %48 = call noundef zeroext i1 @_ZN12Disassembler11is_abstractEv()
  br i1 %48, label %49, label %50

49:                                               ; preds = %47
  store ptr null, ptr %5, align 8
  br label %94

50:                                               ; preds = %47
  %51 = getelementptr inbounds %class.decode_env, ptr %12, i32 0, i32 6
  %52 = load i8, ptr %51, align 8
  %53 = icmp ne i8 %52, 0
  br i1 %53, label %54, label %80

54:                                               ; preds = %50
  %55 = load ptr, ptr @stdout, align 8
  store ptr %55, ptr %10, align 8
  %56 = getelementptr inbounds %class.decode_env, ptr %12, i32 0, i32 6
  %57 = load i8, ptr %56, align 8
  %58 = sext i8 %57 to i32
  %59 = icmp sgt i32 %58, 1
  br i1 %59, label %60, label %62

60:                                               ; preds = %54
  %61 = load ptr, ptr %10, align 8
  br label %63

62:                                               ; preds = %54
  br label %63

63:                                               ; preds = %62, %60
  %64 = phi ptr [ %61, %60 ], [ null, %62 ]
  store ptr %64, ptr %11, align 8
  %65 = load ptr, ptr @_ZN12Disassembler28_decode_instructions_virtualE, align 8
  %66 = load ptr, ptr %7, align 8
  %67 = ptrtoint ptr %66 to i64
  %68 = load ptr, ptr %8, align 8
  %69 = ptrtoint ptr %68 to i64
  %70 = load ptr, ptr %7, align 8
  %71 = load ptr, ptr %8, align 8
  %72 = load ptr, ptr %7, align 8
  %73 = ptrtoint ptr %71 to i64
  %74 = ptrtoint ptr %72 to i64
  %75 = sub i64 %73, %74
  %76 = load ptr, ptr %11, align 8
  %77 = load ptr, ptr %10, align 8
  %78 = call noundef ptr @_ZN10decode_env7optionsEv(ptr noundef nonnull align 8 dereferenceable(583) %12)
  %79 = call noundef ptr %65(i64 noundef %67, i64 noundef %69, ptr noundef %70, i64 noundef %75, ptr noundef null, ptr noundef %76, ptr noundef null, ptr noundef %77, ptr noundef %78, i32 noundef 0)
  store ptr %79, ptr %5, align 8
  br label %94

80:                                               ; preds = %50
  %81 = load ptr, ptr @_ZN12Disassembler28_decode_instructions_virtualE, align 8
  %82 = load ptr, ptr %7, align 8
  %83 = ptrtoint ptr %82 to i64
  %84 = load ptr, ptr %8, align 8
  %85 = ptrtoint ptr %84 to i64
  %86 = load ptr, ptr %7, align 8
  %87 = load ptr, ptr %8, align 8
  %88 = load ptr, ptr %7, align 8
  %89 = ptrtoint ptr %87 to i64
  %90 = ptrtoint ptr %88 to i64
  %91 = sub i64 %89, %90
  %92 = call noundef ptr @_ZN10decode_env7optionsEv(ptr noundef nonnull align 8 dereferenceable(583) %12)
  %93 = call noundef ptr %81(i64 noundef %83, i64 noundef %85, ptr noundef %86, i64 noundef %91, ptr noundef @_ZL12event_to_envPvPKcS_, ptr noundef %12, ptr noundef @_ZL13printf_to_envPvPKcz, ptr noundef %12, ptr noundef %92, i32 noundef 0)
  store ptr %93, ptr %5, align 8
  br label %94

94:                                               ; preds = %80, %63, %49
  %95 = load ptr, ptr %5, align 8
  ret ptr %95
}

; Function Attrs: mustprogress nounwind uwtable
define linkonce_odr hidden noundef ptr @_ZN10decode_env6outputEv(ptr noundef nonnull align 8 dereferenceable(583) %0) #1 comdat align 2 {
  %2 = alloca ptr, align 8
  store ptr %0, ptr %2, align 8
  %3 = load ptr, ptr %2, align 8
  %4 = getelementptr inbounds %class.decode_env, ptr %3, i32 0, i32 0
  %5 = load ptr, ptr %4, align 8
  ret ptr %5
}

; Function Attrs: mustprogress nounwind uwtable
define linkonce_odr hidden noundef i32 @_ZN9Assembler12instr_maxlenEv() #1 comdat align 2 {
  ret i32 4
}

; Function Attrs: mustprogress nounwind uwtable
define linkonce_odr hidden noundef zeroext i1 @_ZN12Disassembler11is_abstractEv() #1 comdat align 2 {
  %1 = load i8, ptr @_ZN12Disassembler22_tried_to_load_libraryE, align 1
  %2 = trunc i8 %1 to i1
  br i1 %2, label %5, label %3

3:                                                ; preds = %0
  %4 = call noundef zeroext i1 @_ZN12Disassembler12load_libraryEP12outputStream(ptr noundef null)
  br label %5

5:                                                ; preds = %3, %0
  %6 = load i8, ptr @_ZN12Disassembler15_library_usableE, align 1
  %7 = trunc i8 %6 to i1
  %8 = xor i1 %7, true
  ret i1 %8
}

; Function Attrs: mustprogress nounwind uwtable
define linkonce_odr hidden noundef i64 @_Z3p2iPVKv(ptr noundef %0) #1 comdat {
  %2 = alloca ptr, align 8
  store ptr %0, ptr %2, align 8
  %3 = load ptr, ptr %2, align 8
  %4 = ptrtoint ptr %3 to i64
  ret i64 %4
}

; Function Attrs: mustprogress nounwind uwtable
define hidden void @_ZN12Disassembler6decodeEPhS0_P12outputStream(ptr noundef %0, ptr noundef %1, ptr noundef %2) #1 align 2 {
  %4 = alloca ptr, align 8
  %5 = alloca ptr, align 8
  %6 = alloca ptr, align 8
  %7 = alloca %class.decode_env, align 8
  store ptr %0, ptr %4, align 8
  store ptr %1, ptr %5, align 8
  store ptr %2, ptr %6, align 8
  %8 = load ptr, ptr %4, align 8
  %9 = load ptr, ptr %5, align 8
  %10 = call noundef zeroext i1 @_ZN2os17is_readable_rangeEPKvS1_(ptr noundef %8, ptr noundef %9)
  br i1 %10, label %21, label %11

11:                                               ; preds = %3
  %12 = load ptr, ptr %6, align 8
  %13 = icmp ne ptr %12, null
  br i1 %13, label %14, label %20

14:                                               ; preds = %11
  %15 = load ptr, ptr %6, align 8
  %16 = load ptr, ptr %4, align 8
  %17 = call noundef i64 @_Z3p2iPVKv(ptr noundef %16)
  %18 = load ptr, ptr %5, align 8
  %19 = call noundef i64 @_Z3p2iPVKv(ptr noundef %18)
  call void (ptr, ptr, ...) @_ZN12outputStream5printEPKcz(ptr noundef nonnull align 8 dereferenceable(56) %15, ptr noundef @.str.69, i64 noundef %17, i64 noundef %19)
  br label %20

20:                                               ; preds = %14, %11
  br label %37

21:                                               ; preds = %3
  %22 = call noundef zeroext i1 @_ZN12Disassembler11is_abstractEv()
  br i1 %22, label %23, label %28

23:                                               ; preds = %21
  %24 = load ptr, ptr %4, align 8
  %25 = load ptr, ptr %5, align 8
  %26 = load ptr, ptr %6, align 8
  %27 = call noundef i32 @_ZN9Assembler12instr_maxlenEv()
  call void @_ZN20AbstractDisassembler15decode_abstractEPhS0_P12outputStreami(ptr noundef %24, ptr noundef %25, ptr noundef %26, i32 noundef %27)
  br label %37

28:                                               ; preds = %21
  %29 = load ptr, ptr %4, align 8
  %30 = load ptr, ptr %5, align 8
  %31 = load ptr, ptr %6, align 8
  call void @_ZN10decode_envC1EPhS0_P12outputStream(ptr noundef nonnull align 8 dereferenceable(583) %7, ptr noundef %29, ptr noundef %30, ptr noundef %31)
  %32 = call noundef ptr @_ZN10decode_env6outputEv(ptr noundef nonnull align 8 dereferenceable(583) %7)
  call void (ptr, ptr, ...) @_ZN12outputStream8print_crEPKcz(ptr noundef nonnull align 8 dereferenceable(56) %32, ptr noundef @.str.65)
  %33 = load ptr, ptr %4, align 8
  %34 = load ptr, ptr %5, align 8
  %35 = call noundef ptr @_ZN10decode_env19decode_instructionsEPhS0_S0_(ptr noundef nonnull align 8 dereferenceable(583) %7, ptr noundef %33, ptr noundef %34, ptr noundef null)
  %36 = call noundef ptr @_ZN10decode_env6outputEv(ptr noundef nonnull align 8 dereferenceable(583) %7)
  call void (ptr, ptr, ...) @_ZN12outputStream8print_crEPKcz(ptr noundef nonnull align 8 dereferenceable(56) %36, ptr noundef @.str.65)
  br label %37

37:                                               ; preds = %28, %23, %20
  ret void
}