; Function Attrs: mustprogress nounwind uwtable
define hidden void @_ZN12Disassembler6decodeEPhS0_P12outputStream(ptr noundef %0, ptr noundef %1, ptr noundef %2) local_unnamed_addr #0 align 2 {
  %4 = alloca %class.decode_env, align 8
  %5 = tail call noundef zeroext i1 @_ZN2os17is_readable_rangeEPKvS1_(ptr noundef %0, ptr noundef %1) #11
  br i1 %5, label %10, label %6

6:                                                ; preds = %3
  %.not = icmp eq ptr %2, null
  br i1 %.not, label %56, label %7

7:                                                ; preds = %6
  %8 = ptrtoint ptr %0 to i64
  %9 = ptrtoint ptr %1 to i64
  tail call void (ptr, ptr, ...) @_ZN12outputStream5printEPKcz(ptr noundef nonnull align 8 dereferenceable(56) %2, ptr noundef nonnull @.str.69, i64 noundef %8, i64 noundef %9) #11
  br label %56

10:                                               ; preds = %3
  %11 = load i8, ptr @_ZN12Disassembler22_tried_to_load_libraryE, align 1
  %12 = trunc i8 %11 to i1
  br i1 %12, label %_ZN12Disassembler11is_abstractEv.exit, label %13

13:                                               ; preds = %10
  %14 = tail call noundef zeroext i1 @_ZN12Disassembler12load_libraryEP12outputStream(ptr noundef null)
  br label %_ZN12Disassembler11is_abstractEv.exit

_ZN12Disassembler11is_abstractEv.exit:            ; preds = %10, %13
  %15 = load i8, ptr @_ZN12Disassembler15_library_usableE, align 1
  %16 = trunc i8 %15 to i1
  br i1 %16, label %18, label %17

17:                                               ; preds = %_ZN12Disassembler11is_abstractEv.exit
  tail call void @_ZN20AbstractDisassembler15decode_abstractEPhS0_P12outputStreami(ptr noundef %0, ptr noundef %1, ptr noundef %2, i32 noundef 4) #11
  br label %56

18:                                               ; preds = %_ZN12Disassembler11is_abstractEv.exit
  %.not.i = icmp eq ptr %2, null
  %19 = load ptr, ptr @tty, align 8
  %20 = select i1 %.not.i, ptr %19, ptr %2
  store ptr %20, ptr %4, align 8
  %21 = getelementptr inbounds i8, ptr %4, i64 8
  %22 = getelementptr inbounds i8, ptr %4, i64 24
  call void @llvm.memset.p0.i64(ptr noundef nonnull align 8 dereferenceable(16) %21, i8 0, i64 16, i1 false)
  store ptr %0, ptr %22, align 8
  %23 = getelementptr inbounds i8, ptr %4, i64 32
  store ptr %1, ptr %23, align 8
  %24 = getelementptr inbounds i8, ptr %4, i64 40
  %25 = getelementptr inbounds i8, ptr %4, i64 560
  call void @llvm.memset.p0.i64(ptr noundef nonnull align 8 dereferenceable(513) %24, i8 0, i64 513, i1 false)
  call void @llvm.memset.p0.i64(ptr noundef nonnull align 8 dereferenceable(23) %25, i8 0, i64 23, i1 false)
  call void @_ZN10decode_env15process_optionsEP12outputStream(ptr noundef nonnull align 8 dereferenceable(583) %4, ptr noundef %20)
  %26 = load ptr, ptr %4, align 8
  call void (ptr, ptr, ...) @_ZN12outputStream8print_crEPKcz(ptr noundef nonnull align 8 dereferenceable(56) %26, ptr noundef nonnull @.str.65) #11
  %.not.i14 = icmp eq ptr %0, null
  br i1 %.not.i14, label %28, label %27

27:                                               ; preds = %18
  store ptr %0, ptr %22, align 8
  br label %28

28:                                               ; preds = %27, %18
  %.not28.i = icmp eq ptr %1, null
  br i1 %.not28.i, label %30, label %29

29:                                               ; preds = %28
  store ptr %1, ptr %23, align 8
  br label %30

30:                                               ; preds = %29, %28
  %31 = load i8, ptr @_ZN12Disassembler22_tried_to_load_libraryE, align 1
  %32 = trunc i8 %31 to i1
  br i1 %32, label %_ZN12Disassembler11is_abstractEv.exit.i, label %33

33:                                               ; preds = %30
  %34 = call noundef zeroext i1 @_ZN12Disassembler12load_libraryEP12outputStream(ptr noundef null)
  br label %_ZN12Disassembler11is_abstractEv.exit.i

_ZN12Disassembler11is_abstractEv.exit.i:          ; preds = %33, %30
  %35 = load i8, ptr @_ZN12Disassembler15_library_usableE, align 1
  %36 = trunc i8 %35 to i1
  br i1 %36, label %37, label %_ZN10decode_env19decode_instructionsEPhS0_S0_.exit

37:                                               ; preds = %_ZN12Disassembler11is_abstractEv.exit.i
  %38 = getelementptr inbounds i8, ptr %4, i64 552
  %39 = load i8, ptr %38, align 8
  %.not30.i = icmp eq i8 %39, 0
  br i1 %.not30.i, label %49, label %40

40:                                               ; preds = %37
  %41 = load ptr, ptr @stdout, align 8
  %42 = icmp sgt i8 %39, 1
  %43 = select i1 %42, ptr %41, ptr null
  %44 = load ptr, ptr @_ZN12Disassembler28_decode_instructions_virtualE, align 8
  %45 = ptrtoint ptr %0 to i64
  %46 = ptrtoint ptr %1 to i64
  %47 = sub i64 %46, %45
  %48 = call noundef ptr %44(i64 noundef %45, i64 noundef %46, ptr noundef %0, i64 noundef %47, ptr noundef null, ptr noundef %43, ptr noundef null, ptr noundef %41, ptr noundef nonnull %24, i32 noundef 0) #11
  br label %_ZN10decode_env19decode_instructionsEPhS0_S0_.exit

49:                                               ; preds = %37
  %50 = load ptr, ptr @_ZN12Disassembler28_decode_instructions_virtualE, align 8
  %51 = ptrtoint ptr %0 to i64
  %52 = ptrtoint ptr %1 to i64
  %53 = sub i64 %52, %51
  %54 = call noundef ptr %50(i64 noundef %51, i64 noundef %52, ptr noundef %0, i64 noundef %53, ptr noundef nonnull @_ZL12event_to_envPvPKcS_, ptr noundef nonnull %4, ptr noundef nonnull @_ZL13printf_to_envPvPKcz, ptr noundef nonnull %4, ptr noundef nonnull %24, i32 noundef 0) #11
  br label %_ZN10decode_env19decode_instructionsEPhS0_S0_.exit

_ZN10decode_env19decode_instructionsEPhS0_S0_.exit: ; preds = %_ZN12Disassembler11is_abstractEv.exit.i, %40, %49
  %55 = load ptr, ptr %4, align 8
  call void (ptr, ptr, ...) @_ZN12outputStream8print_crEPKcz(ptr noundef nonnull align 8 dereferenceable(56) %55, ptr noundef nonnull @.str.65) #11
  br label %56

56:                                               ; preds = %6, %7, %_ZN10decode_env19decode_instructionsEPhS0_S0_.exit, %17
  ret void
}